; Function Attrs: cold nofree norecurse nosync nounwind optsize memory(readwrite, inaccessiblemem: none) uwtable
define internal void @decode_flush(ptr noundef readonly captures(none) %0) #2 {
  %2 = getelementptr inbounds nuw i8, ptr %0, i64 32
  %3 = load ptr, ptr %2, align 8, !tbaa !4
  %4 = getelementptr inbounds nuw i8, ptr %3, i64 104
  %5 = load ptr, ptr %4, align 8, !tbaa !27
  %6 = load ptr, ptr %5, align 8, !tbaa !43
  %.not.i = icmp eq ptr %6, null
  br i1 %.not.i, label %clear_plane.exit, label %.preheader.i

.preheader.i:                                     ; preds = %1
  %7 = getelementptr inbounds nuw i8, ptr %0, i64 116
  %8 = load i32, ptr %7, align 4, !tbaa !46
  %9 = icmp sgt i32 %8, 0
  br i1 %9, label %.lr.ph.i, label %clear_plane.exit

.lr.ph.i:                                         ; preds = %.preheader.i
  %10 = getelementptr inbounds nuw i8, ptr %0, i64 112
  %11 = getelementptr inbounds nuw i8, ptr %3, i64 88
  %12 = getelementptr inbounds nuw i8, ptr %5, i64 64
  br label %13

13:                                               ; preds = %13, %.lr.ph.i
  %.013.i = phi i32 [ 0, %.lr.ph.i ], [ %21, %13 ]
  %.01012.i = phi ptr [ %6, %.lr.ph.i ], [ %20, %13 ]
  %14 = load i32, ptr %10, align 8, !tbaa !54
  %15 = load i32, ptr %11, align 8, !tbaa !55
  %16 = mul nsw i32 %15, %14
  %17 = sext i32 %16 to i64
  tail call void @llvm.memset.p0.i64(ptr align 1 %.01012.i, i8 0, i64 %17, i1 false)
  %18 = load i32, ptr %12, align 8, !tbaa !47
  %19 = sext i32 %18 to i64
  %20 = getelementptr inbounds i8, ptr %.01012.i, i64 %19
  %21 = add nuw nsw i32 %.013.i, 1
  %22 = load i32, ptr %7, align 4, !tbaa !46
  %23 = icmp slt i32 %21, %22
  br i1 %23, label %13, label %clear_plane.exit.loopexit, !llvm.loop !96

clear_plane.exit.loopexit:                        ; preds = %13
  %.pre = load ptr, ptr %2, align 8, !tbaa !4
  br label %clear_plane.exit

clear_plane.exit:                                 ; preds = %clear_plane.exit.loopexit, %1, %.preheader.i
  %24 = phi ptr [ %.pre, %clear_plane.exit.loopexit ], [ %3, %1 ], [ %3, %.preheader.i ]
  %25 = getelementptr inbounds nuw i8, ptr %3, i64 112
  %26 = load ptr, ptr %25, align 8, !tbaa !34
  %27 = load ptr, ptr %26, align 8, !tbaa !43
  %.not.i5 = icmp eq ptr %27, null
  br i1 %.not.i5, label %clear_plane.exit10, label %.preheader.i6

.preheader.i6:                                    ; preds = %clear_plane.exit
  %28 = getelementptr inbounds nuw i8, ptr %0, i64 116
  %29 = load i32, ptr %28, align 4, !tbaa !46
  %30 = icmp sgt i32 %29, 0
  br i1 %30, label %.lr.ph.i7, label %clear_plane.exit10

.lr.ph.i7:                                        ; preds = %.preheader.i6
  %31 = getelementptr inbounds nuw i8, ptr %0, i64 112
  %32 = getelementptr inbounds nuw i8, ptr %24, i64 88
  %33 = getelementptr inbounds nuw i8, ptr %26, i64 64
  br label %34

34:                                               ; preds = %34, %.lr.ph.i7
  %.013.i8 = phi i32 [ 0, %.lr.ph.i7 ], [ %42, %34 ]
  %.01012.i9 = phi ptr [ %27, %.lr.ph.i7 ], [ %41, %34 ]
  %35 = load i32, ptr %31, align 8, !tbaa !54
  %36 = load i32, ptr %32, align 8, !tbaa !55
  %37 = mul nsw i32 %36, %35
  %38 = sext i32 %37 to i64
  tail call void @llvm.memset.p0.i64(ptr align 1 %.01012.i9, i8 0, i64 %38, i1 false)
  %39 = load i32, ptr %33, align 8, !tbaa !47
  %40 = sext i32 %39 to i64
  %41 = getelementptr inbounds i8, ptr %.01012.i9, i64 %40
  %42 = add nuw nsw i32 %.013.i8, 1
  %43 = load i32, ptr %28, align 4, !tbaa !46
  %44 = icmp slt i32 %42, %43
  br i1 %44, label %34, label %clear_plane.exit10, !llvm.loop !96

clear_plane.exit10:                               ; preds = %34, %clear_plane.exit, %.preheader.i6
  ret void
}